	.file	"main.cpp"
	.text
Ltext0:
	.cfi_sections	.debug_frame
.lcomm __ZStL8__ioinit,1,1
	.def	___main;	.scl	2;	.type	32;	.endef
	.section .rdata,"dr"
LC0:
	.ascii "Route \0"
LC1:
	.ascii " has no nice parts\0"
LC2:
	.ascii "The nicest part of route \0"
LC3:
	.ascii " is between stops \0"
LC4:
	.ascii " and \0"
	.def	___gxx_personality_sj0;	.scl	2;	.type	32;	.endef
	.def	__Unwind_SjLj_Register;	.scl	2;	.type	32;	.endef
	.def	__Unwind_SjLj_Unregister;	.scl	2;	.type	32;	.endef
	.text
	.globl	_main
	.def	_main;	.scl	2;	.type	32;	.endef
_main:
LFB950:
	.file 1 "C:/MyData/Google Cloud/ACM/507 Jill rides again/main.cpp"
	.loc 1 5 0
	.cfi_startproc
	.cfi_personality 0,___gxx_personality_sj0
	.cfi_lsda 0,LLSDA950
	leal	4(%esp), %ecx
LCFI0:
	.cfi_def_cfa 1, 0
	andl	$-16, %esp
	pushl	-4(%ecx)
	pushl	%ebp
	.cfi_escape 0x10,0x5,0x2,0x75,0
	movl	%esp, %ebp
	pushl	%edi
	pushl	%esi
	pushl	%ebx
	pushl	%ecx
LCFI1:
	.cfi_escape 0xf,0x3,0x75,0x70,0x6
	.cfi_escape 0x10,0x7,0x2,0x75,0x7c
	.cfi_escape 0x10,0x6,0x2,0x75,0x78
	.cfi_escape 0x10,0x3,0x2,0x75,0x74
	movl	$80136, %eax
	call	___chkstk_ms
	subl	%eax, %esp
	movl	$___gxx_personality_sj0, -80100(%ebp)
	movl	$LLSDA950, -80096(%ebp)
	leal	-80092(%ebp), %eax
	leal	-24(%ebp), %edx
	movl	%edx, (%eax)
	movl	$L15, %edx
	movl	%edx, 4(%eax)
	movl	%esp, 8(%eax)
	leal	-80124(%ebp), %eax
	movl	%eax, (%esp)
	call	__Unwind_SjLj_Register
	.loc 1 5 0
	call	___main
LBB2:
	.loc 1 6 0
	movl	$1, -28(%ebp)
	.loc 1 7 0
	leal	-64(%ebp), %eax
	movl	%eax, (%esp)
	movl	$1, -80120(%ebp)
	movl	$__ZSt3cin, %ecx
	call	__ZNSirsERi
	subl	$4, %esp
LBB3:
	.loc 1 9 0
	movl	$0, -32(%ebp)
	jmp	L2
L11:
LBB4:
	.loc 1 11 0
	leal	-80068(%ebp), %ebx
	movb	$0, %al
	movl	$80000, %edx
	movl	%ebx, %edi
	movl	%edx, %ecx
	rep stosb
	.loc 1 12 0
	leal	-68(%ebp), %eax
	movl	%eax, (%esp)
	movl	$2, -80120(%ebp)
	movl	$__ZSt3cin, %ecx
	call	__ZNSirsERi
	subl	$4, %esp
LBB5:
	.loc 1 14 0
	movl	$0, -36(%ebp)
	jmp	L3
L4:
	.loc 1 15 0
	leal	-80068(%ebp), %eax
	movl	-36(%ebp), %edx
	sall	$2, %edx
	addl	%edx, %eax
	movl	%eax, (%esp)
	movl	$2, -80120(%ebp)
	movl	$__ZSt3cin, %ecx
	call	__ZNSirsERi
	subl	$4, %esp
	.loc 1 14 0
	incl	-36(%ebp)
L3:
	.loc 1 14 0 is_stmt 0 discriminator 1
	movl	-68(%ebp), %eax
	decl	%eax
	cmpl	-36(%ebp), %eax
	setg	%al
	testb	%al, %al
	jne	L4
LBE5:
	.loc 1 17 0 is_stmt 1
	movl	$0, -40(%ebp)
	movl	$0, -44(%ebp)
	movl	-68(%ebp), %eax
	subl	$2, %eax
	movl	%eax, -48(%ebp)
	movl	$0, -52(%ebp)
	movl	$0, -56(%ebp)
LBB6:
	.loc 1 18 0
	movl	-68(%ebp), %eax
	subl	$2, %eax
	movl	%eax, -60(%ebp)
	jmp	L5
L8:
	.loc 1 20 0
	movl	-60(%ebp), %eax
	movl	-80068(%ebp,%eax,4), %eax
	addl	%eax, -40(%ebp)
	.loc 1 21 0
	movl	-40(%ebp), %eax
	cmpl	-44(%ebp), %eax
	jl	L6
	.loc 1 23 0
	movl	-40(%ebp), %eax
	movl	%eax, -44(%ebp)
	.loc 1 24 0
	movl	-60(%ebp), %eax
	movl	%eax, -52(%ebp)
	.loc 1 25 0
	movl	-48(%ebp), %eax
	movl	%eax, -56(%ebp)
L6:
	.loc 1 27 0
	cmpl	$0, -40(%ebp)
	jns	L7
	.loc 1 29 0
	movl	$0, -40(%ebp)
	.loc 1 30 0
	movl	-60(%ebp), %eax
	decl	%eax
	movl	%eax, -48(%ebp)
L7:
	.loc 1 18 0
	decl	-60(%ebp)
L5:
	.loc 1 18 0 is_stmt 0 discriminator 1
	movl	-60(%ebp), %eax
	notl	%eax
	shrl	$31, %eax
	testb	%al, %al
	jne	L8
LBE6:
	.loc 1 34 0 is_stmt 1
	cmpl	$0, -44(%ebp)
	jne	L9
	.loc 1 35 0
	movl	$LC0, 4(%esp)
	movl	$__ZSt4cout, (%esp)
	movl	$2, -80120(%ebp)
	call	__ZStlsISt11char_traitsIcEERSt13basic_ostreamIcT_ES5_PKc
	movl	-28(%ebp), %edx
	movl	%edx, (%esp)
	movl	%eax, %ecx
	call	__ZNSolsEi
	.loc 1 35 0 is_stmt 0 discriminator 1
	subl	$4, %esp
	movl	$LC1, 4(%esp)
	movl	%eax, (%esp)
	call	__ZStlsISt11char_traitsIcEERSt13basic_ostreamIcT_ES5_PKc
	movl	$__ZSt4endlIcSt11char_traitsIcEERSt13basic_ostreamIT_T0_ES6_, (%esp)
	movl	%eax, %ecx
	call	__ZNSolsEPFRSoS_E
	subl	$4, %esp
	jmp	L10
L9:
	.loc 1 37 0 is_stmt 1
	movl	-56(%ebp), %eax
	addl	$2, %eax
	movl	%eax, -80128(%ebp)
	movl	-52(%ebp), %eax
	incl	%eax
	movl	%eax, -80132(%ebp)
	movl	$LC2, 4(%esp)
	movl	$__ZSt4cout, (%esp)
	movl	$2, -80120(%ebp)
	call	__ZStlsISt11char_traitsIcEERSt13basic_ostreamIcT_ES5_PKc
	movl	-28(%ebp), %edx
	movl	%edx, (%esp)
	movl	%eax, %ecx
	call	__ZNSolsEi
	.loc 1 37 0 is_stmt 0 discriminator 1
	subl	$4, %esp
	movl	$LC3, 4(%esp)
	movl	%eax, (%esp)
	call	__ZStlsISt11char_traitsIcEERSt13basic_ostreamIcT_ES5_PKc
	movl	-80132(%ebp), %edx
	movl	%edx, (%esp)
	movl	%eax, %ecx
	call	__ZNSolsEi
	subl	$4, %esp
	movl	$LC4, 4(%esp)
	movl	%eax, (%esp)
	call	__ZStlsISt11char_traitsIcEERSt13basic_ostreamIcT_ES5_PKc
	movl	-80128(%ebp), %ecx
	movl	%ecx, (%esp)
	movl	%eax, %ecx
	call	__ZNSolsEi
	subl	$4, %esp
	movl	$__ZSt4endlIcSt11char_traitsIcEERSt13basic_ostreamIT_T0_ES6_, (%esp)
	movl	%eax, %ecx
	call	__ZNSolsEPFRSoS_E
	subl	$4, %esp
L10:
	.loc 1 39 0 is_stmt 1
	incl	-28(%ebp)
LBE4:
	.loc 1 9 0
	incl	-32(%ebp)
L2:
	.loc 1 9 0 is_stmt 0 discriminator 1
	movl	-64(%ebp), %eax
	cmpl	%eax, -32(%ebp)
	setl	%al
	testb	%al, %al
	jne	L11
LBE3:
	.loc 1 41 0 is_stmt 1
	movl	$0, %eax
	movl	%eax, -80136(%ebp)
	jmp	L18
L17:
	movl	%edx, %eax
	jmp	L14
L15:
	leal	24(%ebp), %ebp
	movl	-80116(%ebp), %edx
	movl	-80120(%ebp), %eax
	testl	%eax, %eax
	je	L16
	cmpl	$1, %eax
	je	L17
		.word	0x0b0f
L16:
	movl	%edx, %eax
L14:
	movl	%eax, (%esp)
	movl	$-1, -80120(%ebp)
	call	__Unwind_SjLj_Resume
L18:
	leal	-80124(%ebp), %eax
	movl	%eax, (%esp)
	call	__Unwind_SjLj_Unregister
LBE2:
	.loc 1 42 0
	movl	-80136(%ebp), %eax
	leal	-16(%ebp), %esp
	popl	%ecx
LCFI2:
	.cfi_restore 1
	.cfi_def_cfa 1, 0
	popl	%ebx
	.cfi_restore 3
	popl	%esi
	.cfi_restore 6
	popl	%edi
	.cfi_restore 7
	popl	%ebp
	.cfi_restore 5
	leal	-4(%ecx), %esp
LCFI3:
	.cfi_def_cfa 4, 4
	ret
	.cfi_endproc
LFE950:
	.section	.gcc_except_table,"w"
LLSDA950:
	.byte	0xff
	.byte	0xff
	.byte	0x1
	.uleb128 LLSDACSE950-LLSDACSB950
LLSDACSB950:
	.uleb128 0
	.uleb128 0
	.uleb128 0x1
	.uleb128 0
LLSDACSE950:
	.text
	.def	___tcf_0;	.scl	3;	.type	32;	.endef
___tcf_0:
LFB960:
	.file 2 "c:/program files (x86)/codeblocks/mingw/bin/../lib/gcc/mingw32/4.7.1/include/c++/iostream"
	.loc 2 75 0
	.cfi_startproc
	pushl	%ebp
LCFI4:
	.cfi_def_cfa_offset 8
	.cfi_offset 5, -8
	movl	%esp, %ebp
LCFI5:
	.cfi_def_cfa_register 5
	subl	$8, %esp
	.loc 2 75 0
	movl	$__ZStL8__ioinit, %ecx
	call	__ZNSt8ios_base4InitD1Ev
	leave
LCFI6:
	.cfi_restore 5
	.cfi_def_cfa 4, 4
	ret
	.cfi_endproc
LFE960:
	.def	__Z41__static_initialization_and_destruction_0ii;	.scl	3;	.type	32;	.endef
__Z41__static_initialization_and_destruction_0ii:
LFB959:
	.loc 1 42 0
	.cfi_startproc
	pushl	%ebp
LCFI7:
	.cfi_def_cfa_offset 8
	.cfi_offset 5, -8
	movl	%esp, %ebp
LCFI8:
	.cfi_def_cfa_register 5
	subl	$24, %esp
	.loc 1 42 0
	cmpl	$1, 8(%ebp)
	jne	L20
	.loc 1 42 0 is_stmt 0 discriminator 1
	cmpl	$65535, 12(%ebp)
	jne	L20
	.loc 2 75 0 is_stmt 1
	movl	$__ZStL8__ioinit, %ecx
	call	__ZNSt8ios_base4InitC1Ev
	movl	$___tcf_0, (%esp)
	call	_atexit
L20:
	.loc 1 42 0
	leave
LCFI9:
	.cfi_restore 5
	.cfi_def_cfa 4, 4
	ret
	.cfi_endproc
LFE959:
	.def	__GLOBAL__sub_I_main;	.scl	3;	.type	32;	.endef
__GLOBAL__sub_I_main:
LFB961:
	.loc 1 42 0
	.cfi_startproc
	pushl	%ebp
LCFI10:
	.cfi_def_cfa_offset 8
	.cfi_offset 5, -8
	movl	%esp, %ebp
LCFI11:
	.cfi_def_cfa_register 5
	subl	$24, %esp
	.loc 1 42 0
	movl	$65535, 4(%esp)
	movl	$1, (%esp)
	call	__Z41__static_initialization_and_destruction_0ii
	leave
LCFI12:
	.cfi_restore 5
	.cfi_def_cfa 4, 4
	ret
	.cfi_endproc
LFE961:
	.section	.ctors,"w"
	.align 4
	.long	__GLOBAL__sub_I_main
	.text
Letext0:
	.file 3 "c:/program files (x86)/codeblocks/mingw/bin/../lib/gcc/mingw32/4.7.1/include/stddef.h"
	.file 4 "c:/program files (x86)/codeblocks/mingw/bin/../lib/gcc/mingw32/4.7.1/../../../../include/wctype.h"
	.file 5 "c:/program files (x86)/codeblocks/mingw/bin/../lib/gcc/mingw32/4.7.1/../../../../include/wchar.h"
	.file 6 "c:/program files (x86)/codeblocks/mingw/bin/../lib/gcc/mingw32/4.7.1/include/c++/cwchar"
	.file 7 "c:/program files (x86)/codeblocks/mingw/bin/../lib/gcc/mingw32/4.7.1/include/c++/mingw32/bits/c++config.h"
	.file 8 "c:/program files (x86)/codeblocks/mingw/bin/../lib/gcc/mingw32/4.7.1/include/c++/clocale"
	.file 9 "c:/program files (x86)/codeblocks/mingw/bin/../lib/gcc/mingw32/4.7.1/include/c++/bits/ios_base.h"
	.file 10 "c:/program files (x86)/codeblocks/mingw/bin/../lib/gcc/mingw32/4.7.1/include/c++/cwctype"
	.file 11 "c:/program files (x86)/codeblocks/mingw/bin/../lib/gcc/mingw32/4.7.1/include/c++/iosfwd"
	.file 12 "<built-in>"
	.file 13 "c:/program files (x86)/codeblocks/mingw/bin/../lib/gcc/mingw32/4.7.1/include/c++/ext/new_allocator.h"
	.file 14 "c:/program files (x86)/codeblocks/mingw/bin/../lib/gcc/mingw32/4.7.1/include/c++/debug/debug.h"
	.file 15 "c:/program files (x86)/codeblocks/mingw/bin/../lib/gcc/mingw32/4.7.1/include/c++/bits/char_traits.h"
	.file 16 "c:/program files (x86)/codeblocks/mingw/bin/../lib/gcc/mingw32/4.7.1/../../../../include/locale.h"
	.file 17 "c:/program files (x86)/codeblocks/mingw/bin/../lib/gcc/mingw32/4.7.1/include/c++/mingw32/bits/atomic_word.h"
	.file 18 "c:/program files (x86)/codeblocks/mingw/bin/../lib/gcc/mingw32/4.7.1/include/c++/ext/numeric_traits.h"
	.file 19 "c:/program files (x86)/codeblocks/mingw/bin/../lib/gcc/mingw32/4.7.1/../../../../include/ctype.h"
	.file 20 "c:/program files (x86)/codeblocks/mingw/bin/../lib/gcc/mingw32/4.7.1/include/c++/mingw32/bits/gthr-default.h"