	.file	"main.c"
	.text
Ltext0:
	.cfi_sections	.debug_frame
	.comm	_MyGrid, 100, 5
	.globl	_NextGrid
	.def	_NextGrid;	.scl	2;	.type	32;	.endef
_NextGrid:
LFB6:
	.file 1 "C:/MyData/Google Cloud/ACM/11581 Grid Successors/main.c"
	.loc 1 5 0
	.cfi_startproc
	pushl	%ebp
LCFI0:
	.cfi_def_cfa_offset 8
	.cfi_offset 5, -8
	movl	%esp, %ebp
LCFI1:
	.cfi_def_cfa_register 5
	pushl	%edi
	pushl	%ebx
	addl	$-128, %esp
	.cfi_offset 7, -12
	.cfi_offset 3, -16
	.loc 1 6 0
	leal	-116(%ebp), %ebx
	movb	$0, %al
	movl	$100, %edx
	movl	%ebx, %edi
	movl	%edx, %ecx
	rep stosb
	.loc 1 8 0
	movl	$1, -12(%ebp)
	jmp	L2
L6:
	.loc 1 10 0
	movl	$1, -16(%ebp)
	jmp	L3
L5:
	.loc 1 12 0 discriminator 2
	movl	-12(%ebp), %eax
	leal	-1(%eax), %edx
	movl	%edx, %eax
	sall	$2, %eax
	addl	%edx, %eax
	sall	$2, %eax
	movl	%eax, %edx
	movl	8(%ebp), %eax
	addl	%eax, %edx
	movl	-16(%ebp), %eax
	movl	(%edx,%eax,4), %edx
	movl	-12(%ebp), %eax
	leal	1(%eax), %ecx
	movl	%ecx, %eax
	sall	$2, %eax
	addl	%ecx, %eax
	sall	$2, %eax
	movl	%eax, %ecx
	movl	8(%ebp), %eax
	addl	%eax, %ecx
	movl	-16(%ebp), %eax
	movl	(%ecx,%eax,4), %eax
	leal	(%edx,%eax), %ecx
	movl	-12(%ebp), %edx
	movl	%edx, %eax
	sall	$2, %eax
	addl	%edx, %eax
	sall	$2, %eax
	movl	%eax, %edx
	movl	8(%ebp), %eax
	addl	%edx, %eax
	movl	-16(%ebp), %edx
	decl	%edx
	movl	(%eax,%edx,4), %eax
	addl	%eax, %ecx
	movl	-12(%ebp), %edx
	movl	%edx, %eax
	sall	$2, %eax
	addl	%edx, %eax
	sall	$2, %eax
	movl	%eax, %edx
	movl	8(%ebp), %eax
	addl	%edx, %eax
	movl	-16(%ebp), %edx
	incl	%edx
	movl	(%eax,%edx,4), %eax
	addl	%ecx, %eax
	andl	$-2147483647, %eax
	testl	%eax, %eax
	jns	L4
	decl	%eax
	orl	$-2, %eax
	incl	%eax
L4:
	movl	%eax, %edx
	movl	-12(%ebp), %ecx
	movl	%ecx, %eax
	sall	$2, %eax
	addl	%ecx, %eax
	movl	-16(%ebp), %ecx
	addl	%ecx, %eax
	movl	%edx, -116(%ebp,%eax,4)
	.loc 1 10 0 discriminator 2
	incl	-16(%ebp)
L3:
	.loc 1 10 0 is_stmt 0 discriminator 1
	cmpl	$3, -16(%ebp)
	jle	L5
	.loc 1 8 0 is_stmt 1
	incl	-12(%ebp)
L2:
	.loc 1 8 0 is_stmt 0 discriminator 1
	cmpl	$3, -12(%ebp)
	jle	L6
	.loc 1 16 0 is_stmt 1
	movl	$1, -12(%ebp)
	jmp	L7
L12:
	.loc 1 18 0
	movl	$1, -16(%ebp)
	jmp	L8
L11:
	.loc 1 20 0
	movl	-12(%ebp), %edx
	movl	%edx, %eax
	sall	$2, %eax
	addl	%edx, %eax
	movl	-16(%ebp), %edx
	addl	%edx, %eax
	movl	-116(%ebp,%eax,4), %eax
	testl	%eax, %eax
	je	L9
	.loc 1 22 0
	movl	$5, -12(%ebp)
	movl	$5, -16(%ebp)
	.loc 1 23 0
	jmp	L10
L9:
	.loc 1 18 0
	incl	-16(%ebp)
L8:
	.loc 1 18 0 is_stmt 0 discriminator 1
	cmpl	$3, -16(%ebp)
	jle	L11
L10:
	.loc 1 16 0 is_stmt 1
	incl	-12(%ebp)
L7:
	.loc 1 16 0 is_stmt 0 discriminator 1
	cmpl	$3, -12(%ebp)
	jle	L12
	.loc 1 27 0 is_stmt 1
	cmpl	$4, -12(%ebp)
	jne	L13
	.loc 1 27 0 is_stmt 0 discriminator 1
	cmpl	$4, -16(%ebp)
	jne	L13
	movl	12(%ebp), %eax
	jmp	L22
L13:
	.loc 1 29 0 is_stmt 1
	movl	$1, -12(%ebp)
	jmp	L15
L20:
	.loc 1 31 0
	movl	$1, -16(%ebp)
	jmp	L16
L19:
	.loc 1 33 0
	movl	-12(%ebp), %edx
	movl	%edx, %eax
	sall	$2, %eax
	addl	%edx, %eax
	movl	-16(%ebp), %edx
	addl	%edx, %eax
	movl	-116(%ebp,%eax,4), %ecx
	movl	-12(%ebp), %edx
	movl	%edx, %eax
	sall	$2, %eax
	addl	%edx, %eax
	movl	-16(%ebp), %edx
	addl	%edx, %eax
	movl	_MyGrid(,%eax,4), %eax
	cmpl	%eax, %ecx
	je	L17
	.loc 1 35 0
	movl	$5, -12(%ebp)
	movl	$5, -16(%ebp)
	.loc 1 36 0
	jmp	L18
L17:
	.loc 1 31 0
	incl	-16(%ebp)
L16:
	.loc 1 31 0 is_stmt 0 discriminator 1
	cmpl	$3, -16(%ebp)
	jle	L19
L18:
	.loc 1 29 0 is_stmt 1
	incl	-12(%ebp)
L15:
	.loc 1 29 0 is_stmt 0 discriminator 1
	cmpl	$3, -12(%ebp)
	jle	L20
	.loc 1 40 0 is_stmt 1
	cmpl	$4, -12(%ebp)
	jne	L21
	.loc 1 40 0 is_stmt 0 discriminator 1
	cmpl	$4, -16(%ebp)
	jne	L21
	movl	12(%ebp), %eax
	jmp	L22
L21:
	.loc 1 42 0 is_stmt 1
	movl	12(%ebp), %eax
	incl	%eax
	movl	%eax, 4(%esp)
	leal	-116(%ebp), %eax
	movl	%eax, (%esp)
	call	_NextGrid
L22:
	.loc 1 43 0
	subl	$-128, %esp
	popl	%ebx
	.cfi_restore 3
	popl	%edi
	.cfi_restore 7
	popl	%ebp
LCFI2:
	.cfi_restore 5
	.cfi_def_cfa 4, 4
	ret
	.cfi_endproc
LFE6:
	.def	___main;	.scl	2;	.type	32;	.endef
	.section .rdata,"dr"
LC0:
	.ascii "%d\0"
LC1:
	.ascii "%1d\0"
LC2:
	.ascii "-1\0"
LC3:
	.ascii "%d\12\0"
	.text
	.globl	_main
	.def	_main;	.scl	2;	.type	32;	.endef
_main:
LFB7:
	.loc 1 46 0
	.cfi_startproc
	pushl	%ebp
LCFI3:
	.cfi_def_cfa_offset 8
	.cfi_offset 5, -8
	movl	%esp, %ebp
LCFI4:
	.cfi_def_cfa_register 5
	andl	$-16, %esp
	subl	$32, %esp
	.loc 1 46 0
	call	___main
	.loc 1 49 0
	leal	16(%esp), %eax
	movl	%eax, 4(%esp)
	movl	$LC0, (%esp)
	call	_scanf
	.loc 1 50 0
	jmp	L24
L30:
	.loc 1 52 0
	movl	$0, 20(%esp)
	.loc 1 53 0
	movl	$1, 28(%esp)
	jmp	L25
L28:
	.loc 1 55 0
	movl	$1, 24(%esp)
	jmp	L26
L27:
	.loc 1 57 0 discriminator 2
	movl	28(%esp), %edx
	movl	%edx, %eax
	sall	$2, %eax
	addl	%edx, %eax
	movl	24(%esp), %edx
	addl	%edx, %eax
	sall	$2, %eax
	addl	$_MyGrid, %eax
	movl	%eax, 4(%esp)
	movl	$LC1, (%esp)
	call	_scanf
	.loc 1 58 0 discriminator 2
	movl	28(%esp), %edx
	movl	%edx, %eax
	sall	$2, %eax
	addl	%edx, %eax
	movl	24(%esp), %edx
	addl	%edx, %eax
	movl	_MyGrid(,%eax,4), %eax
	addl	%eax, 20(%esp)
	.loc 1 55 0 discriminator 2
	incl	24(%esp)
L26:
	.loc 1 55 0 is_stmt 0 discriminator 1
	cmpl	$3, 24(%esp)
	jle	L27
	.loc 1 53 0 is_stmt 1
	incl	28(%esp)
L25:
	.loc 1 53 0 is_stmt 0 discriminator 1
	cmpl	$3, 28(%esp)
	jle	L28
	.loc 1 61 0 is_stmt 1
	cmpl	$0, 20(%esp)
	jne	L29
	.loc 1 62 0
	movl	$LC2, (%esp)
	call	_puts
	jmp	L24
L29:
	.loc 1 64 0
	movl	$0, 4(%esp)
	movl	$_MyGrid, (%esp)
	call	_NextGrid
	movl	%eax, 4(%esp)
	movl	$LC3, (%esp)
	call	_printf
L24:
	.loc 1 50 0 discriminator 1
	movl	16(%esp), %eax
	testl	%eax, %eax
	setne	%dl
	decl	%eax
	movl	%eax, 16(%esp)
	testb	%dl, %dl
	jne	L30
	.loc 1 66 0
	movl	$0, %eax
	.loc 1 67 0
	leave
LCFI5:
	.cfi_restore 5
	.cfi_def_cfa 4, 4
	ret
	.cfi_endproc
LFE7:
Letext0:
	.file 2 "c:/program files (x86)/codeblocks/mingw/bin/../lib/gcc/mingw32/4.7.1/../../../../include/stdio.h"